ARM GAS  C:\Users\MI\AppData\Local\Temp\ccfftwTQ.s 			page 1


   1              		.cpu cortex-m4
   2              		.eabi_attribute 27, 1
   3              		.eabi_attribute 28, 1
   4              		.eabi_attribute 20, 1
   5              		.eabi_attribute 21, 1
   6              		.eabi_attribute 23, 3
   7              		.eabi_attribute 24, 1
   8              		.eabi_attribute 25, 1
   9              		.eabi_attribute 26, 1
  10              		.eabi_attribute 30, 6
  11              		.eabi_attribute 34, 1
  12              		.eabi_attribute 18, 4
  13              		.file	"uart_RasPi.c"
  14              		.text
  15              	.Ltext0:
  16              		.cfi_sections	.debug_frame
  17              		.section	.data.s_pUSART,"aw"
  18              		.align	2
  21              	s_pUSART:
  22 0000 00440040 		.word	1073759232
  23              		.section	.data.s_uwIRQn,"aw"
  24              		.align	2
  27              	s_uwIRQn:
  28 0000 26000000 		.word	38
  29              		.section	.bss.s_uart_init,"aw",%nobits
  30              		.align	2
  33              	s_uart_init:
  34 0000 00000000 		.space	4
  35              		.comm	uart_RasPi,120,4
  36              		.section	.text.uart_RasPi_irq,"ax",%progbits
  37              		.align	1
  38              		.arch armv7e-m
  39              		.syntax unified
  40              		.thumb
  41              		.thumb_func
  42              		.fpu fpv4-sp-d16
  44              	uart_RasPi_irq:
  45              	.LFB287:
  46              		.file 1 "c:/Users/MI/Documents/IoTLink/HWCup/Hardware/uart_RasPi/uart_RasPi.c"
   1:c:/Users/MI/Documents/IoTLink/HWCup/Hardware/uart_RasPi\uart_RasPi.c **** #include <uart_RasPi.h>
   2:c:/Users/MI/Documents/IoTLink/HWCup/Hardware/uart_RasPi\uart_RasPi.c **** 
   3:c:/Users/MI/Documents/IoTLink/HWCup/Hardware/uart_RasPi\uart_RasPi.c **** static USART_TypeDef *s_pUSART = USART2;
   4:c:/Users/MI/Documents/IoTLink/HWCup/Hardware/uart_RasPi\uart_RasPi.c **** static uint32_t s_uwIRQn = USART2_IRQn;
   5:c:/Users/MI/Documents/IoTLink/HWCup/Hardware/uart_RasPi\uart_RasPi.c **** 
   6:c:/Users/MI/Documents/IoTLink/HWCup/Hardware/uart_RasPi\uart_RasPi.c **** static bool_t s_uart_init = false;
   7:c:/Users/MI/Documents/IoTLink/HWCup/Hardware/uart_RasPi\uart_RasPi.c **** 
   8:c:/Users/MI/Documents/IoTLink/HWCup/Hardware/uart_RasPi\uart_RasPi.c **** UART_HandleTypeDef uart_RasPi;
   9:c:/Users/MI/Documents/IoTLink/HWCup/Hardware/uart_RasPi\uart_RasPi.c **** 
  10:c:/Users/MI/Documents/IoTLink/HWCup/Hardware/uart_RasPi\uart_RasPi.c **** extern char RasPi_rcv_data[64];
  11:c:/Users/MI/Documents/IoTLink/HWCup/Hardware/uart_RasPi\uart_RasPi.c **** extern osal_semp_t RasPi_rcv_sync;
  12:c:/Users/MI/Documents/IoTLink/HWCup/Hardware/uart_RasPi\uart_RasPi.c **** 
  13:c:/Users/MI/Documents/IoTLink/HWCup/Hardware/uart_RasPi\uart_RasPi.c **** static void uart_RasPi_irq(void)
  14:c:/Users/MI/Documents/IoTLink/HWCup/Hardware/uart_RasPi\uart_RasPi.c **** {
  47              		.loc 1 14 1
  48              		.cfi_startproc
  49              		@ args = 0, pretend = 0, frame = 8
  50              		@ frame_needed = 1, uses_anonymous_args = 0
ARM GAS  C:\Users\MI\AppData\Local\Temp\ccfftwTQ.s 			page 2


  51 0000 80B5     		push	{r7, lr}
  52              	.LCFI0:
  53              		.cfi_def_cfa_offset 8
  54              		.cfi_offset 7, -8
  55              		.cfi_offset 14, -4
  56 0002 82B0     		sub	sp, sp, #8
  57              	.LCFI1:
  58              		.cfi_def_cfa_offset 16
  59 0004 00AF     		add	r7, sp, #0
  60              	.LCFI2:
  61              		.cfi_def_cfa_register 7
  15:c:/Users/MI/Documents/IoTLink/HWCup/Hardware/uart_RasPi\uart_RasPi.c ****     unsigned char value;
  16:c:/Users/MI/Documents/IoTLink/HWCup/Hardware/uart_RasPi\uart_RasPi.c ****     if (__HAL_UART_GET_FLAG(&uart_RasPi, UART_FLAG_RXNE) != RESET)
  62              		.loc 1 16 9
  63 0006 194B     		ldr	r3, .L6
  64 0008 1B68     		ldr	r3, [r3]
  65 000a DB69     		ldr	r3, [r3, #28]
  66 000c 03F02003 		and	r3, r3, #32
  67              		.loc 1 16 8
  68 0010 202B     		cmp	r3, #32
  69 0012 1CD1     		bne	.L2
  17:c:/Users/MI/Documents/IoTLink/HWCup/Hardware/uart_RasPi\uart_RasPi.c ****     {
  18:c:/Users/MI/Documents/IoTLink/HWCup/Hardware/uart_RasPi\uart_RasPi.c ****         value = (uint8_t)(uart_RasPi.Instance->RDR & 0x00FF);
  70              		.loc 1 18 37
  71 0014 154B     		ldr	r3, .L6
  72 0016 1B68     		ldr	r3, [r3]
  73              		.loc 1 18 46
  74 0018 9B8C     		ldrh	r3, [r3, #36]	@ movhi
  75 001a 9BB2     		uxth	r3, r3
  76              		.loc 1 18 15
  77 001c FB71     		strb	r3, [r7, #7]
  19:c:/Users/MI/Documents/IoTLink/HWCup/Hardware/uart_RasPi\uart_RasPi.c ****         RasPi_rcv_data[strlen(RasPi_rcv_data)] = value;
  78              		.loc 1 19 24
  79 001e 1448     		ldr	r0, .L6+4
  80 0020 FFF7FEFF 		bl	strlen
  81 0024 0246     		mov	r2, r0
  82              		.loc 1 19 48
  83 0026 1249     		ldr	r1, .L6+4
  84 0028 FB79     		ldrb	r3, [r7, #7]
  85 002a 8B54     		strb	r3, [r1, r2]
  20:c:/Users/MI/Documents/IoTLink/HWCup/Hardware/uart_RasPi\uart_RasPi.c ****         if (value == '2')
  86              		.loc 1 20 12
  87 002c FB79     		ldrb	r3, [r7, #7]	@ zero_extendqisi2
  88 002e 322B     		cmp	r3, #50
  89 0030 04D1     		bne	.L3
  21:c:/Users/MI/Documents/IoTLink/HWCup/Hardware/uart_RasPi\uart_RasPi.c ****             (void)memset(RasPi_rcv_data, 0, 64);
  90              		.loc 1 21 19
  91 0032 4022     		movs	r2, #64
  92 0034 0021     		movs	r1, #0
  93 0036 0E48     		ldr	r0, .L6+4
  94 0038 FFF7FEFF 		bl	memset
  95              	.L3:
  22:c:/Users/MI/Documents/IoTLink/HWCup/Hardware/uart_RasPi\uart_RasPi.c ****         if (value == '3')
  96              		.loc 1 22 12
  97 003c FB79     		ldrb	r3, [r7, #7]	@ zero_extendqisi2
  98 003e 332B     		cmp	r3, #51
  99 0040 10D1     		bne	.L5
ARM GAS  C:\Users\MI\AppData\Local\Temp\ccfftwTQ.s 			page 3


  23:c:/Users/MI/Documents/IoTLink/HWCup/Hardware/uart_RasPi\uart_RasPi.c ****             LOS_SemPost(RasPi_rcv_sync);
 100              		.loc 1 23 13
 101 0042 0C4B     		ldr	r3, .L6+8
 102 0044 1B68     		ldr	r3, [r3]
 103 0046 1846     		mov	r0, r3
 104 0048 FFF7FEFF 		bl	LOS_SemPost
  24:c:/Users/MI/Documents/IoTLink/HWCup/Hardware/uart_RasPi\uart_RasPi.c ****     }
  25:c:/Users/MI/Documents/IoTLink/HWCup/Hardware/uart_RasPi\uart_RasPi.c ****     else if (__HAL_UART_GET_FLAG(&uart_RasPi, UART_FLAG_IDLE) != RESET)
  26:c:/Users/MI/Documents/IoTLink/HWCup/Hardware/uart_RasPi\uart_RasPi.c ****     {
  27:c:/Users/MI/Documents/IoTLink/HWCup/Hardware/uart_RasPi\uart_RasPi.c ****         __HAL_UART_CLEAR_IDLEFLAG(&uart_RasPi);
  28:c:/Users/MI/Documents/IoTLink/HWCup/Hardware/uart_RasPi\uart_RasPi.c ****     }
  29:c:/Users/MI/Documents/IoTLink/HWCup/Hardware/uart_RasPi\uart_RasPi.c **** }
 105              		.loc 1 29 1
 106 004c 0AE0     		b	.L5
 107              	.L2:
  25:c:/Users/MI/Documents/IoTLink/HWCup/Hardware/uart_RasPi\uart_RasPi.c ****     {
 108              		.loc 1 25 14
 109 004e 074B     		ldr	r3, .L6
 110 0050 1B68     		ldr	r3, [r3]
 111 0052 DB69     		ldr	r3, [r3, #28]
 112 0054 03F01003 		and	r3, r3, #16
  25:c:/Users/MI/Documents/IoTLink/HWCup/Hardware/uart_RasPi\uart_RasPi.c ****     {
 113              		.loc 1 25 13
 114 0058 102B     		cmp	r3, #16
 115 005a 03D1     		bne	.L5
  27:c:/Users/MI/Documents/IoTLink/HWCup/Hardware/uart_RasPi\uart_RasPi.c ****     }
 116              		.loc 1 27 9
 117 005c 034B     		ldr	r3, .L6
 118 005e 1B68     		ldr	r3, [r3]
 119 0060 1022     		movs	r2, #16
 120 0062 1A62     		str	r2, [r3, #32]
 121              	.L5:
 122              		.loc 1 29 1
 123 0064 00BF     		nop
 124 0066 0837     		adds	r7, r7, #8
 125              	.LCFI3:
 126              		.cfi_def_cfa_offset 8
 127 0068 BD46     		mov	sp, r7
 128              	.LCFI4:
 129              		.cfi_def_cfa_register 13
 130              		@ sp needed
 131 006a 80BD     		pop	{r7, pc}
 132              	.L7:
 133              		.align	2
 134              	.L6:
 135 006c 00000000 		.word	uart_RasPi
 136 0070 00000000 		.word	RasPi_rcv_data
 137 0074 00000000 		.word	RasPi_rcv_sync
 138              		.cfi_endproc
 139              	.LFE287:
 141              		.section	.text.RasPi_uart_init,"ax",%progbits
 142              		.align	1
 143              		.global	RasPi_uart_init
 144              		.syntax unified
 145              		.thumb
 146              		.thumb_func
 147              		.fpu fpv4-sp-d16
ARM GAS  C:\Users\MI\AppData\Local\Temp\ccfftwTQ.s 			page 4


 149              	RasPi_uart_init:
 150              	.LFB288:
  30:c:/Users/MI/Documents/IoTLink/HWCup/Hardware/uart_RasPi\uart_RasPi.c **** 
  31:c:/Users/MI/Documents/IoTLink/HWCup/Hardware/uart_RasPi\uart_RasPi.c **** void RasPi_uart_init(int baud)
  32:c:/Users/MI/Documents/IoTLink/HWCup/Hardware/uart_RasPi\uart_RasPi.c **** {
 151              		.loc 1 32 1
 152              		.cfi_startproc
 153              		@ args = 0, pretend = 0, frame = 8
 154              		@ frame_needed = 1, uses_anonymous_args = 0
 155 0000 80B5     		push	{r7, lr}
 156              	.LCFI5:
 157              		.cfi_def_cfa_offset 8
 158              		.cfi_offset 7, -8
 159              		.cfi_offset 14, -4
 160 0002 84B0     		sub	sp, sp, #16
 161              	.LCFI6:
 162              		.cfi_def_cfa_offset 24
 163 0004 02AF     		add	r7, sp, #8
 164              	.LCFI7:
 165              		.cfi_def_cfa 7, 16
 166 0006 7860     		str	r0, [r7, #4]
  33:c:/Users/MI/Documents/IoTLink/HWCup/Hardware/uart_RasPi\uart_RasPi.c ****     uart_RasPi.Instance = s_pUSART;
 167              		.loc 1 33 25
 168 0008 1B4B     		ldr	r3, .L12
 169 000a 1B68     		ldr	r3, [r3]
 170 000c 1B4A     		ldr	r2, .L12+4
 171 000e 1360     		str	r3, [r2]
  34:c:/Users/MI/Documents/IoTLink/HWCup/Hardware/uart_RasPi\uart_RasPi.c ****     uart_RasPi.Init.BaudRate = baud;
 172              		.loc 1 34 30
 173 0010 7B68     		ldr	r3, [r7, #4]
 174 0012 1A4A     		ldr	r2, .L12+4
 175 0014 5360     		str	r3, [r2, #4]
  35:c:/Users/MI/Documents/IoTLink/HWCup/Hardware/uart_RasPi\uart_RasPi.c ****     uart_RasPi.Init.WordLength = UART_WORDLENGTH_8B;
 176              		.loc 1 35 32
 177 0016 194B     		ldr	r3, .L12+4
 178 0018 0022     		movs	r2, #0
 179 001a 9A60     		str	r2, [r3, #8]
  36:c:/Users/MI/Documents/IoTLink/HWCup/Hardware/uart_RasPi\uart_RasPi.c ****     uart_RasPi.Init.StopBits = UART_STOPBITS_1;
 180              		.loc 1 36 30
 181 001c 174B     		ldr	r3, .L12+4
 182 001e 0022     		movs	r2, #0
 183 0020 DA60     		str	r2, [r3, #12]
  37:c:/Users/MI/Documents/IoTLink/HWCup/Hardware/uart_RasPi\uart_RasPi.c ****     uart_RasPi.Init.Parity = UART_PARITY_NONE;
 184              		.loc 1 37 28
 185 0022 164B     		ldr	r3, .L12+4
 186 0024 0022     		movs	r2, #0
 187 0026 1A61     		str	r2, [r3, #16]
  38:c:/Users/MI/Documents/IoTLink/HWCup/Hardware/uart_RasPi\uart_RasPi.c ****     uart_RasPi.Init.Mode = UART_MODE_TX_RX;
 188              		.loc 1 38 26
 189 0028 144B     		ldr	r3, .L12+4
 190 002a 0C22     		movs	r2, #12
 191 002c 5A61     		str	r2, [r3, #20]
  39:c:/Users/MI/Documents/IoTLink/HWCup/Hardware/uart_RasPi\uart_RasPi.c ****     uart_RasPi.Init.HwFlowCtl = UART_HWCONTROL_NONE;
 192              		.loc 1 39 31
 193 002e 134B     		ldr	r3, .L12+4
 194 0030 0022     		movs	r2, #0
 195 0032 9A61     		str	r2, [r3, #24]
ARM GAS  C:\Users\MI\AppData\Local\Temp\ccfftwTQ.s 			page 5


  40:c:/Users/MI/Documents/IoTLink/HWCup/Hardware/uart_RasPi\uart_RasPi.c ****     uart_RasPi.Init.OverSampling = UART_OVERSAMPLING_16;
 196              		.loc 1 40 34
 197 0034 114B     		ldr	r3, .L12+4
 198 0036 0022     		movs	r2, #0
 199 0038 DA61     		str	r2, [r3, #28]
  41:c:/Users/MI/Documents/IoTLink/HWCup/Hardware/uart_RasPi\uart_RasPi.c ****     if (HAL_UART_Init(&uart_RasPi) != HAL_OK)
 200              		.loc 1 41 9
 201 003a 1048     		ldr	r0, .L12+4
 202 003c FFF7FEFF 		bl	HAL_UART_Init
 203 0040 0346     		mov	r3, r0
 204              		.loc 1 41 8
 205 0042 002B     		cmp	r3, #0
 206 0044 14D1     		bne	.L11
  42:c:/Users/MI/Documents/IoTLink/HWCup/Hardware/uart_RasPi\uart_RasPi.c ****     {
  43:c:/Users/MI/Documents/IoTLink/HWCup/Hardware/uart_RasPi\uart_RasPi.c ****         return;
  44:c:/Users/MI/Documents/IoTLink/HWCup/Hardware/uart_RasPi\uart_RasPi.c ****     }
  45:c:/Users/MI/Documents/IoTLink/HWCup/Hardware/uart_RasPi\uart_RasPi.c ****     LOS_HwiCreate(s_uwIRQn, 1, 0, uart_RasPi_irq, 0);
 207              		.loc 1 45 5
 208 0046 0E4B     		ldr	r3, .L12+8
 209 0048 1868     		ldr	r0, [r3]
 210 004a 0023     		movs	r3, #0
 211 004c 0093     		str	r3, [sp]
 212 004e 0D4B     		ldr	r3, .L12+12
 213 0050 0022     		movs	r2, #0
 214 0052 0121     		movs	r1, #1
 215 0054 FFF7FEFF 		bl	LOS_HwiCreate
  46:c:/Users/MI/Documents/IoTLink/HWCup/Hardware/uart_RasPi\uart_RasPi.c ****     //__HAL_UART_ENABLE_IT(&uart_RasPi, UART_IT_IDLE);
  47:c:/Users/MI/Documents/IoTLink/HWCup/Hardware/uart_RasPi\uart_RasPi.c ****     __HAL_UART_ENABLE_IT(&uart_RasPi, UART_IT_RXNE);
 216              		.loc 1 47 5
 217 0058 084B     		ldr	r3, .L12+4
 218 005a 1B68     		ldr	r3, [r3]
 219 005c 1A68     		ldr	r2, [r3]
 220 005e 074B     		ldr	r3, .L12+4
 221 0060 1B68     		ldr	r3, [r3]
 222 0062 42F02002 		orr	r2, r2, #32
 223 0066 1A60     		str	r2, [r3]
  48:c:/Users/MI/Documents/IoTLink/HWCup/Hardware/uart_RasPi\uart_RasPi.c **** 
  49:c:/Users/MI/Documents/IoTLink/HWCup/Hardware/uart_RasPi\uart_RasPi.c ****     // extern UINT32 osSemCreate(UINT16 usCount, UINT16 usMaxCount, UINT32 * puwSemHandle);
  50:c:/Users/MI/Documents/IoTLink/HWCup/Hardware/uart_RasPi\uart_RasPi.c ****     // osSemCreate(0, 64, (UINT32 *)&RasPi_rcv_sync);
  51:c:/Users/MI/Documents/IoTLink/HWCup/Hardware/uart_RasPi\uart_RasPi.c ****     s_uart_init = true;
 224              		.loc 1 51 17
 225 0068 074B     		ldr	r3, .L12+16
 226 006a 0122     		movs	r2, #1
 227 006c 1A60     		str	r2, [r3]
 228 006e 00E0     		b	.L8
 229              	.L11:
  43:c:/Users/MI/Documents/IoTLink/HWCup/Hardware/uart_RasPi\uart_RasPi.c ****     }
 230              		.loc 1 43 9
 231 0070 00BF     		nop
 232              	.L8:
  52:c:/Users/MI/Documents/IoTLink/HWCup/Hardware/uart_RasPi\uart_RasPi.c **** }
 233              		.loc 1 52 1
 234 0072 0837     		adds	r7, r7, #8
 235              	.LCFI8:
 236              		.cfi_def_cfa_offset 8
 237 0074 BD46     		mov	sp, r7
 238              	.LCFI9:
ARM GAS  C:\Users\MI\AppData\Local\Temp\ccfftwTQ.s 			page 6


 239              		.cfi_def_cfa_register 13
 240              		@ sp needed
 241 0076 80BD     		pop	{r7, pc}
 242              	.L13:
 243              		.align	2
 244              	.L12:
 245 0078 00000000 		.word	s_pUSART
 246 007c 00000000 		.word	uart_RasPi
 247 0080 00000000 		.word	s_uwIRQn
 248 0084 00000000 		.word	uart_RasPi_irq
 249 0088 00000000 		.word	s_uart_init
 250              		.cfi_endproc
 251              	.LFE288:
 253              		.section	.rodata
 254              		.align	2
 255              	.LC0:
 256 0000 3100     		.ascii	"1\000"
 257              		.section	.text.RasPi_request,"ax",%progbits
 258              		.align	1
 259              		.global	RasPi_request
 260              		.syntax unified
 261              		.thumb
 262              		.thumb_func
 263              		.fpu fpv4-sp-d16
 265              	RasPi_request:
 266              	.LFB289:
  53:c:/Users/MI/Documents/IoTLink/HWCup/Hardware/uart_RasPi\uart_RasPi.c **** 
  54:c:/Users/MI/Documents/IoTLink/HWCup/Hardware/uart_RasPi\uart_RasPi.c **** void RasPi_request(void)
  55:c:/Users/MI/Documents/IoTLink/HWCup/Hardware/uart_RasPi\uart_RasPi.c **** {
 267              		.loc 1 55 1
 268              		.cfi_startproc
 269              		@ args = 0, pretend = 0, frame = 0
 270              		@ frame_needed = 1, uses_anonymous_args = 0
 271 0000 80B5     		push	{r7, lr}
 272              	.LCFI10:
 273              		.cfi_def_cfa_offset 8
 274              		.cfi_offset 7, -8
 275              		.cfi_offset 14, -4
 276 0002 00AF     		add	r7, sp, #0
 277              	.LCFI11:
 278              		.cfi_def_cfa_register 7
  56:c:/Users/MI/Documents/IoTLink/HWCup/Hardware/uart_RasPi\uart_RasPi.c ****     HAL_UART_Transmit(&uart_RasPi, "1", 1, 0xffff);
 279              		.loc 1 56 5
 280 0004 4FF6FF73 		movw	r3, #65535
 281 0008 0122     		movs	r2, #1
 282 000a 0349     		ldr	r1, .L15
 283 000c 0348     		ldr	r0, .L15+4
 284 000e FFF7FEFF 		bl	HAL_UART_Transmit
  57:c:/Users/MI/Documents/IoTLink/HWCup/Hardware/uart_RasPi\uart_RasPi.c **** }
 285              		.loc 1 57 1
 286 0012 00BF     		nop
 287 0014 80BD     		pop	{r7, pc}
 288              	.L16:
 289 0016 00BF     		.align	2
 290              	.L15:
 291 0018 00000000 		.word	.LC0
 292 001c 00000000 		.word	uart_RasPi
ARM GAS  C:\Users\MI\AppData\Local\Temp\ccfftwTQ.s 			page 7


 293              		.cfi_endproc
 294              	.LFE289:
 296              		.text
 297              	.Letext0:
 298              		.file 2 "c:\\users\\mi\\.iotlink\\tools\\gcc-arm-none-eabi\\arm-none-eabi\\include\\machine\\_defa
 299              		.file 3 "c:\\users\\mi\\.iotlink\\tools\\gcc-arm-none-eabi\\arm-none-eabi\\include\\sys\\lock.h"
 300              		.file 4 "c:\\users\\mi\\.iotlink\\tools\\gcc-arm-none-eabi\\arm-none-eabi\\include\\sys\\_types.h"
 301              		.file 5 "c:\\users\\mi\\.iotlink\\tools\\gcc-arm-none-eabi\\lib\\gcc\\arm-none-eabi\\9.2.1\\includ
 302              		.file 6 "c:\\users\\mi\\.iotlink\\tools\\gcc-arm-none-eabi\\arm-none-eabi\\include\\sys\\reent.h"
 303              		.file 7 "C:/Users/MI/.iotlink/sdk/IoT_LINK/iot_link/os/liteos/include/los_typedef.h"
 304              		.file 8 "c:\\users\\mi\\.iotlink\\tools\\gcc-arm-none-eabi\\arm-none-eabi\\include\\sys\\_stdint.h
 305              		.file 9 "C:/Users/MI/.iotlink/sdk/IoT_LINK/iot_link/os/liteos/arch/arm/common/cmsis/core_cm4.h"
 306              		.file 10 "c:/Users/MI/Documents/IoTLink/HWCup/Inc/system_stm32l4xx.h"
 307              		.file 11 "c:/Users/MI/Documents/IoTLink/HWCup/Inc/stm32l431xx.h"
 308              		.file 12 "c:/Users/MI/Documents/IoTLink/HWCup/Inc/stm32l4xx.h"
 309              		.file 13 "C:/Users/MI/.iotlink/sdk/IoT_LINK/iot_link/os/liteos/include/los_config.h"
 310              		.file 14 "C:/Users/MI/.iotlink/sdk/IoT_LINK/iot_link/os/liteos/include/los_err.h"
 311              		.file 15 "C:/Users/MI/.iotlink/sdk/IoT_LINK/iot_link/os/liteos/arch/arm/arm-m/include/los_hwi.h"
 312              		.file 16 "C:/Users/MI/.iotlink/sdk/IoT_LINK/drivers/third_party/ST/STM32L4xx_HAL_Driver/Inc/stm32l
 313              		.file 17 "C:/Users/MI/.iotlink/sdk/IoT_LINK/drivers/third_party/ST/STM32L4xx_HAL_Driver/Inc/stm32l
 314              		.file 18 "C:/Users/MI/.iotlink/sdk/IoT_LINK/drivers/third_party/ST/STM32L4xx_HAL_Driver/Inc/stm32l
 315              		.file 19 "c:/Users/MI/Documents/IoTLink/HWCup/Inc/usart.h"
 316              		.file 20 "C:/Users/MI/.iotlink/sdk/IoT_LINK/iot_link/os/osal/osal_types.h"
 317              		.file 21 "C:/Users/MI/.iotlink/sdk/IoT_LINK/iot_link/os/liteos/include/los_tick.h"
 318              		.file 22 "C:/Users/MI/.iotlink/sdk/IoT_LINK/iot_link/os/liteos/include/los_task.h"
ARM GAS  C:\Users\MI\AppData\Local\Temp\ccfftwTQ.s 			page 8

